target datalayout = "e-m:e-p270:32:32-p271:32:32-p272:64:64-i64:64-i128:128-f80:128-n8:16:32:64-S128"
target triple = "x86_64-pc-linux-gnu"

%struct.CastContext = type { ptr, ptr, ptr, ptr, ptr, i32, i32 }
%struct.Expr_ = type { ptr, %union.SourceSpan, i16, %union.anon.29 }
%union.SourceSpan = type { i64 }
%union.anon.29 = type { %struct.ExprAnySwitch }
%struct.ExprAnySwitch = type { i8, %union.anon.31 }
%union.anon.31 = type { %struct.anon.32 }
%struct.anon.32 = type { ptr, %union.SourceSpan, ptr }

@.str.12 = private unnamed_addr constant [65 x i8] c"%s cannot implicitly be converted to %s, but you may use a cast.\00", align 1

; Function Attrs: nounwind uwtable
define internal zeroext i1 @rule_explicit_ok(ptr noundef %0, i1 noundef zeroext %1, i1 noundef zeroext %2) #0 {
  %4 = alloca i1, align 1
  %5 = alloca ptr, align 8
  %6 = alloca i8, align 1
  %7 = alloca i8, align 1
  store ptr %0, ptr %5, align 8
  %8 = zext i1 %1 to i8
  store i8 %8, ptr %6, align 1
  %9 = zext i1 %2 to i8
  store i8 %9, ptr %7, align 1
  %10 = load i8, ptr %6, align 1
  %11 = trunc i8 %10 to i1
  br i1 %11, label %12, label %13

12:                                               ; preds = %3
  store i1 true, ptr %4, align 1
  br label %34

13:                                               ; preds = %3
  %14 = load i8, ptr %7, align 1
  %15 = trunc i8 %14 to i1
  br i1 %15, label %33, label %16

16:                                               ; preds = %13
  %17 = load ptr, ptr %5, align 8
  %18 = getelementptr inbounds %struct.CastContext, ptr %17, i32 0, i32 1
  %19 = load ptr, ptr %18, align 8
  %20 = getelementptr inbounds %struct.Expr_, ptr %19, i32 0, i32 1
  %21 = load ptr, ptr %5, align 8
  %22 = getelementptr inbounds %struct.CastContext, ptr %21, i32 0, i32 1
  %23 = load ptr, ptr %22, align 8
  %24 = getelementptr inbounds %struct.Expr_, ptr %23, i32 0, i32 0
  %25 = load ptr, ptr %24, align 8
  %26 = call ptr @type_quoted_error_string(ptr noundef %25)
  %27 = load ptr, ptr %5, align 8
  %28 = getelementptr inbounds %struct.CastContext, ptr %27, i32 0, i32 3
  %29 = load ptr, ptr %28, align 8
  %30 = call ptr @type_quoted_error_string(ptr noundef %29)
  %31 = getelementptr inbounds %union.SourceSpan, ptr %20, i32 0, i32 0
  %32 = load i64, ptr %31, align 8
  call void (i64, ptr, ...) @sema_error_at(i64 %32, ptr noundef @.str.12, ptr noundef %26, ptr noundef %30)
  br label %33

33:                                               ; preds = %16, %13
  store i1 false, ptr %4, align 1
  br label %34

34:                                               ; preds = %33, %12
  %35 = load i1, ptr %4, align 1
  ret i1 %35
}