; Function Attrs: nounwind uwtable
define internal noundef zeroext i1 @rule_explicit_ok(ptr nocapture noundef readonly %0, i1 noundef returned zeroext %1, i1 noundef zeroext %2) #0 {
  %brmerge = or i1 %1, %2
  br i1 %brmerge, label %14, label %4

4:                                                ; preds = %3
  %5 = getelementptr inbounds i8, ptr %0, i64 8
  %6 = load ptr, ptr %5, align 8
  %7 = getelementptr inbounds i8, ptr %6, i64 8
  %8 = load ptr, ptr %6, align 8
  %9 = tail call ptr @type_quoted_error_string(ptr noundef %8) #10
  %10 = getelementptr inbounds i8, ptr %0, i64 24
  %11 = load ptr, ptr %10, align 8
  %12 = tail call ptr @type_quoted_error_string(ptr noundef %11) #10
  %13 = load i64, ptr %7, align 8
  tail call void (i64, ptr, ...) @sema_error_at(i64 %13, ptr noundef nonnull @.str.12, ptr noundef %9, ptr noundef %12) #10
  br label %14

14:                                               ; preds = %3, %4
  ret i1 %1
}